; ModuleID = '33/2702.c'
source_filename = "33/2702.c"
target datalayout = "e-m:e-p270:32:32-p271:32:32-p272:64:64-i64:64-f80:128-n8:16:32:64-S128"
target triple = "x86_64-pc-linux-gnu"

@.str = private unnamed_addr constant [3 x i8] c"%d\00", align 1
@.str.1 = private unnamed_addr constant [3 x i8] c"%s\00", align 1
@.str.2 = private unnamed_addr constant [4 x i8] c"%s\0A\00", align 1

; Function Attrs: noinline nounwind uwtable
define dso_local i32 @main() #0 {
  %1 = alloca i32, align 4
  %2 = alloca i32, align 4
  %3 = alloca i32, align 4
  %4 = alloca i32, align 4
  %5 = alloca i32, align 4
  %6 = alloca [257 x i8], align 16
  store i32 0, i32* %1, align 4
  %7 = call i32 (i8*, ...) @__isoc99_scanf(i8* getelementptr inbounds ([3 x i8], [3 x i8]* @.str, i64 0, i64 0), i32* %2)
  store i32 0, i32* %3, align 4
  br label %8

8:                                                ; preds = %77, %0
  %9 = load i32, i32* %3, align 4
  %10 = load i32, i32* %2, align 4
  %11 = sub nsw i32 %10, 1
  %12 = icmp slt i32 %9, %11
  br i1 %12, label %13, label %80

13:                                               ; preds = %8
  %14 = getelementptr inbounds [257 x i8], [257 x i8]* %6, i64 0, i64 0
  %15 = call i32 (i8*, ...) @__isoc99_scanf(i8* getelementptr inbounds ([3 x i8], [3 x i8]* @.str.1, i64 0, i64 0), i8* %14)
  %16 = getelementptr inbounds [257 x i8], [257 x i8]* %6, i64 0, i64 0
  %17 = call i64 @strlen(i8* %16) #3
  %18 = trunc i64 %17 to i32
  store i32 %18, i32* %5, align 4
  store i32 0, i32* %4, align 4
  br label %19

19:                                               ; preds = %71, %13
  %20 = load i32, i32* %4, align 4
  %21 = load i32, i32* %5, align 4
  %22 = icmp slt i32 %20, %21
  br i1 %22, label %23, label %74

23:                                               ; preds = %19
  %24 = load i32, i32* %4, align 4
  %25 = sext i32 %24 to i64
  %26 = getelementptr inbounds [257 x i8], [257 x i8]* %6, i64 0, i64 %25
  %27 = load i8, i8* %26, align 1
  %28 = sext i8 %27 to i32
  %29 = icmp eq i32 %28, 65
  br i1 %29, label %30, label %34

30:                                               ; preds = %23
  %31 = load i32, i32* %4, align 4
  %32 = sext i32 %31 to i64
  %33 = getelementptr inbounds [257 x i8], [257 x i8]* %6, i64 0, i64 %32
  store i8 84, i8* %33, align 1
  br label %70

34:                                               ; preds = %23
  %35 = load i32, i32* %4, align 4
  %36 = sext i32 %35 to i64
  %37 = getelementptr inbounds [257 x i8], [257 x i8]* %6, i64 0, i64 %36
  %38 = load i8, i8* %37, align 1
  %39 = sext i8 %38 to i32
  %40 = icmp eq i32 %39, 84
  br i1 %40, label %41, label %45

41:                                               ; preds = %34
  %42 = load i32, i32* %4, align 4
  %43 = sext i32 %42 to i64
  %44 = getelementptr inbounds [257 x i8], [257 x i8]* %6, i64 0, i64 %43
  store i8 65, i8* %44, align 1
  br label %69

45:                                               ; preds = %34
  %46 = load i32, i32* %4, align 4
  %47 = sext i32 %46 to i64
  %48 = getelementptr inbounds [257 x i8], [257 x i8]* %6, i64 0, i64 %47
  %49 = load i8, i8* %48, align 1
  %50 = sext i8 %49 to i32
  %51 = icmp eq i32 %50, 71
  br i1 %51, label %52, label %56

52:                                               ; preds = %45
  %53 = load i32, i32* %4, align 4
  %54 = sext i32 %53 to i64
  %55 = getelementptr inbounds [257 x i8], [257 x i8]* %6, i64 0, i64 %54
  store i8 67, i8* %55, align 1
  br label %68

56:                                               ; preds = %45
  %57 = load i32, i32* %4, align 4
  %58 = sext i32 %57 to i64
  %59 = getelementptr inbounds [257 x i8], [257 x i8]* %6, i64 0, i64 %58
  %60 = load i8, i8* %59, align 1
  %61 = sext i8 %60 to i32
  %62 = icmp eq i32 %61, 67
  br i1 %62, label %63, label %67

63:                                               ; preds = %56
  %64 = load i32, i32* %4, align 4
  %65 = sext i32 %64 to i64
  %66 = getelementptr inbounds [257 x i8], [257 x i8]* %6, i64 0, i64 %65
  store i8 71, i8* %66, align 1
  br label %67

67:                                               ; preds = %63, %56
  br label %68

68:                                               ; preds = %67, %52
  br label %69

69:                                               ; preds = %68, %41
  br label %70

70:                                               ; preds = %69, %30
  br label %71

71:                                               ; preds = %70
  %72 = load i32, i32* %4, align 4
  %73 = add nsw i32 %72, 1
  store i32 %73, i32* %4, align 4
  br label %19

74:                                               ; preds = %19
  %75 = getelementptr inbounds [257 x i8], [257 x i8]* %6, i64 0, i64 0
  %76 = call i32 (i8*, ...) @printf(i8* getelementptr inbounds ([4 x i8], [4 x i8]* @.str.2, i64 0, i64 0), i8* %75)
  br label %77

77:                                               ; preds = %74
  %78 = load i32, i32* %3, align 4
  %79 = add nsw i32 %78, 1
  store i32 %79, i32* %3, align 4
  br label %8

80:                                               ; preds = %8
  %81 = getelementptr inbounds [257 x i8], [257 x i8]* %6, i64 0, i64 0
  %82 = call i32 (i8*, ...) @__isoc99_scanf(i8* getelementptr inbounds ([3 x i8], [3 x i8]* @.str.1, i64 0, i64 0), i8* %81)
  %83 = getelementptr inbounds [257 x i8], [257 x i8]* %6, i64 0, i64 0
  %84 = call i64 @strlen(i8* %83) #3
  %85 = trunc i64 %84 to i32
  store i32 %85, i32* %5, align 4
  store i32 0, i32* %4, align 4
  br label %86

86:                                               ; preds = %138, %80
  %87 = load i32, i32* %4, align 4
  %88 = load i32, i32* %5, align 4
  %89 = icmp slt i32 %87, %88
  br i1 %89, label %90, label %141

90:                                               ; preds = %86
  %91 = load i32, i32* %4, align 4
  %92 = sext i32 %91 to i64
  %93 = getelementptr inbounds [257 x i8], [257 x i8]* %6, i64 0, i64 %92
  %94 = load i8, i8* %93, align 1
  %95 = sext i8 %94 to i32
  %96 = icmp eq i32 %95, 65
  br i1 %96, label %97, label %101

97:                                               ; preds = %90
  %98 = load i32, i32* %4, align 4
  %99 = sext i32 %98 to i64
  %100 = getelementptr inbounds [257 x i8], [257 x i8]* %6, i64 0, i64 %99
  store i8 84, i8* %100, align 1
  br label %137

101:                                              ; preds = %90
  %102 = load i32, i32* %4, align 4
  %103 = sext i32 %102 to i64
  %104 = getelementptr inbounds [257 x i8], [257 x i8]* %6, i64 0, i64 %103
  %105 = load i8, i8* %104, align 1
  %106 = sext i8 %105 to i32
  %107 = icmp eq i32 %106, 84
  br i1 %107, label %108, label %112

108:                                              ; preds = %101
  %109 = load i32, i32* %4, align 4
  %110 = sext i32 %109 to i64
  %111 = getelementptr inbounds [257 x i8], [257 x i8]* %6, i64 0, i64 %110
  store i8 65, i8* %111, align 1
  br label %136

112:                                              ; preds = %101
  %113 = load i32, i32* %4, align 4
  %114 = sext i32 %113 to i64
  %115 = getelementptr inbounds [257 x i8], [257 x i8]* %6, i64 0, i64 %114
  %116 = load i8, i8* %115, align 1
  %117 = sext i8 %116 to i32
  %118 = icmp eq i32 %117, 71
  br i1 %118, label %119, label %123

119:                                              ; preds = %112
  %120 = load i32, i32* %4, align 4
  %121 = sext i32 %120 to i64
  %122 = getelementptr inbounds [257 x i8], [257 x i8]* %6, i64 0, i64 %121
  store i8 67, i8* %122, align 1
  br label %135

123:                                              ; preds = %112
  %124 = load i32, i32* %4, align 4
  %125 = sext i32 %124 to i64
  %126 = getelementptr inbounds [257 x i8], [257 x i8]* %6, i64 0, i64 %125
  %127 = load i8, i8* %126, align 1
  %128 = sext i8 %127 to i32
  %129 = icmp eq i32 %128, 67
  br i1 %129, label %130, label %134

130:                                              ; preds = %123
  %131 = load i32, i32* %4, align 4
  %132 = sext i32 %131 to i64
  %133 = getelementptr inbounds [257 x i8], [257 x i8]* %6, i64 0, i64 %132
  store i8 71, i8* %133, align 1
  br label %134

134:                                              ; preds = %130, %123
  br label %135

135:                                              ; preds = %134, %119
  br label %136

136:                                              ; preds = %135, %108
  br label %137

137:                                              ; preds = %136, %97
  br label %138

138:                                              ; preds = %137
  %139 = load i32, i32* %4, align 4
  %140 = add nsw i32 %139, 1
  store i32 %140, i32* %4, align 4
  br label %86

141:                                              ; preds = %86
  %142 = getelementptr inbounds [257 x i8], [257 x i8]* %6, i64 0, i64 0
  %143 = call i32 (i8*, ...) @printf(i8* getelementptr inbounds ([3 x i8], [3 x i8]* @.str.1, i64 0, i64 0), i8* %142)
  ret i32 0
}

declare dso_local i32 @__isoc99_scanf(i8*, ...) #1

; Function Attrs: nounwind readonly
declare dso_local i64 @strlen(i8*) #2

declare dso_local i32 @printf(i8*, ...) #1


!llvm.module.flags = !{!0}
!llvm.ident = !{!1}

!0 = !{i32 1, !"wchar_size", i32 4}
!1 = !{!"clang version 10.0.0-4ubuntu1 "}
